ccopy_reg
_reconstructor
p0
(cscipy.stats._stats_mstats_common
LinregressResult
p1
c__builtin__
tuple
p2
(cnumpy.core.multiarray
scalar
p3
(cnumpy
dtype
p4
(S'f8'
p5
I0
I1
tp6
Rp7
(I3
S'<'
p8
NNNI-1
I-1
I0
tp9
bS'\xe8\xd3\x8a\xb9_R\xe6?'
p10
tp11
Rp12
g3
(g7
S'\x02\x92\x15\xb7\xc3\xf5\x1e@'
p13
tp14
Rp15
g3
(g7
S'\x93\x80\xe4\xc9\x84E\xef?'
p16
tp17
Rp18
g3
(g7
S'\xbf\x9c\xfc\x13\x06\xb2\x8d='
p19
tp20
Rp21
g3
(g7
S'\x91\x1eV\x0eGb\xa3?'
p22
tp23
Rp24
tp25
tp26
Rp27
.