ccopy_reg
_reconstructor
p0
(cscipy.stats._stats_mstats_common
LinregressResult
p1
c__builtin__
tuple
p2
(cnumpy.core.multiarray
scalar
p3
(cnumpy
dtype
p4
(S'f8'
p5
I0
I1
tp6
Rp7
(I3
S'<'
p8
NNNI-1
I-1
I0
tp9
bS'\x8b\xcaeA#`\xe3?'
p10
tp11
Rp12
g3
(g7
S'\x7fy;\xa5\xdc0\x1e@'
p13
tp14
Rp15
g3
(g7
S'g\x85\x8ei<h\xef?'
p16
tp17
Rp18
g3
(g7
S'\xa27\xe1V\xb2)g='
p19
tp20
Rp21
g3
(g7
S'PF\xb3E2B\x9e?'
p22
tp23
Rp24
tp25
tp26
Rp27
.