ccopy_reg
_reconstructor
p0
(cscipy.stats._stats_mstats_common
LinregressResult
p1
c__builtin__
tuple
p2
(cnumpy.core.multiarray
scalar
p3
(cnumpy
dtype
p4
(S'f8'
p5
I0
I1
tp6
Rp7
(I3
S'<'
p8
NNNI-1
I-1
I0
tp9
bS'~j\x8d\xb8`\xda\xe3?'
p10
tp11
Rp12
g3
(g7
S'\xacD\x01\x03\xb8\x1d\x1e@'
p13
tp14
Rp15
g3
(g7
S'\xb9\x95\x8d=+\x80\xef?'
p16
tp17
Rp18
g3
(g7
S'\xd1\x85\xf6\xdb\xb2\xb0G='
p19
tp20
Rp21
g3
(g7
S'@\xe6\xee\xc5)d\x9c?'
p22
tp23
Rp24
tp25
tp26
Rp27
.