ccopy_reg
_reconstructor
p0
(cscipy.stats._stats_mstats_common
LinregressResult
p1
c__builtin__
tuple
p2
(cnumpy.core.multiarray
scalar
p3
(cnumpy
dtype
p4
(S'f8'
p5
I0
I1
tp6
Rp7
(I3
S'<'
p8
NNNI-1
I-1
I0
tp9
bS'\xb2\xa0}\x86\xac\x8e\xe3?'
p10
tp11
Rp12
g3
(g7
S'\xc4e r\xf8E\x1e@'
p13
tp14
Rp15
g3
(g7
S'Q\x8d\xd9{4b\xef?'
p16
tp17
Rp18
g3
(g7
S'/\x17)\x84A\x90o='
p19
tp20
Rp21
g3
(g7
S'\x90V\xbe\xd17)\x9f?'
p22
tp23
Rp24
tp25
tp26
Rp27
.