ccopy_reg
_reconstructor
p0
(cscipy.stats._stats_mstats_common
LinregressResult
p1
c__builtin__
tuple
p2
(cnumpy.core.multiarray
scalar
p3
(cnumpy
dtype
p4
(S'f8'
p5
I0
I1
tp6
Rp7
(I3
S'<'
p8
NNNI-1
I-1
I0
tp9
bS'\x8c%\x86\x88\x8db\xe6?'
p10
tp11
Rp12
g3
(g7
S'\x84\xa8\x9a\xe6\x8d\xfb\x1e@'
p13
tp14
Rp15
g3
(g7
S'\xde\xf7\xc1\x91\xa5?\xef?'
p16
tp17
Rp18
g3
(g7
S'\x8b\x8c\x85|\xfd\xfb\x92='
p19
tp20
Rp21
g3
(g7
S'#\x19\x95I\xdc\xc0\xa3?'
p22
tp23
Rp24
tp25
tp26
Rp27
.