ccopy_reg
_reconstructor
p0
(cscipy.stats._stats_mstats_common
LinregressResult
p1
c__builtin__
tuple
p2
(cnumpy.core.multiarray
scalar
p3
(cnumpy
dtype
p4
(S'f8'
p5
I0
I1
tp6
Rp7
(I3
S'<'
p8
NNNI-1
I-1
I0
tp9
bS'\xa3Y\xc2\\\xc6\xfd\xe3?'
p10
tp11
Rp12
g3
(g7
S'.y\x02]\xea+\x1e@'
p13
tp14
Rp15
g3
(g7
S'2\xb0\x07\xc1\xab\x7f\xef?'
p16
tp17
Rp18
g3
(g7
S'%\xe3\xea\xb6\x1doH='
p19
tp20
Rp21
g3
(g7
S'\xcd2E\xb9]\xa5\x9c?'
p22
tp23
Rp24
tp25
tp26
Rp27
.